(dp1
S'layout'
p2
(ilayout
Layout
p3
(dp4
S'capsules'
p5
(lp6
(I26
I1
tp7
a(I8
I3
tp8
a(I23
I12
tp9
a(I5
I14
tp10
asS'numGhosts'
p11
I6
sS'food'
p12
(igame
Grid
p13
(dp14
S'CELLS_PER_INT'
p15
I30
sS'width'
p16
I32
sS'data'
p17
(lp18
(lp19
I00
aI00
aI00
aI00
aI00
aI00
aI00
aI00
aI00
aI00
aI00
aI00
aI00
aI00
aI00
aI00
aa(lp20
I00
aI00
aI00
aI00
aI00
aI00
aI00
aI00
aI00
aI00
aI00
aI00
aI00
aI00
aI00
aI00
aa(lp21
I00
aI00
aI00
aI00
aI00
aI00
aI00
aI00
aI00
aI00
aI00
aI00
aI00
aI00
aI00
aI00
aa(lp22
I00
aI01
aI01
aI01
aI01
aI00
aI00
aI00
aI01
aI00
aI00
aI00
aI00
aI00
aI00
aI00
aa(lp23
I00
aI00
aI00
aI00
aI00
aI00
aI00
aI01
aI01
aI01
aI00
aI00
aI00
aI00
aI00
aI00
aa(lp24
I00
aI01
aI00
aI00
aI00
aI00
aI00
aI00
aI00
aI00
aI00
aI00
aI01
aI00
aI00
aI00
aa(lp25
I00
aI00
aI00
aI00
aI00
aI00
aI00
aI00
aI00
aI00
aI00
aI00
aI00
aI00
aI01
aI00
aa(lp26
I00
aI00
aI00
aI01
aI00
aI00
aI00
aI00
aI01
aI01
aI00
aI00
aI00
aI00
aI00
aI00
aa(lp27
I00
aI00
aI00
aI00
aI00
aI00
aI00
aI00
aI00
aI01
aI00
aI00
aI00
aI00
aI01
aI00
aa(lp28
I00
aI01
aI00
aI00
aI00
aI01
aI00
aI00
aI00
aI00
aI00
aI01
aI00
aI01
aI00
aI00
aa(lp29
I00
aI00
aI00
aI01
aI00
aI00
aI00
aI01
aI00
aI01
aI00
aI00
aI00
aI00
aI01
aI00
aa(lp30
I00
aI00
aI00
aI00
aI00
aI00
aI00
aI00
aI00
aI00
aI00
aI00
aI00
aI00
aI00
aI00
aa(lp31
I00
aI00
aI00
aI00
aI00
aI00
aI00
aI00
aI00
aI00
aI00
aI00
aI00
aI00
aI00
aI00
aa(lp32
I00
aI01
aI00
aI00
aI00
aI00
aI00
aI00
aI00
aI00
aI00
aI00
aI00
aI00
aI00
aI00
aa(lp33
I00
aI00
aI00
aI00
aI00
aI00
aI00
aI00
aI00
aI01
aI00
aI00
aI00
aI00
aI00
aI00
aa(lp34
I00
aI00
aI00
aI00
aI00
aI00
aI00
aI00
aI00
aI00
aI00
aI00
aI00
aI00
aI00
aI00
aa(lp35
I00
aI00
aI00
aI00
aI00
aI00
aI00
aI00
aI00
aI00
aI00
aI00
aI00
aI00
aI00
aI00
aa(lp36
I00
aI00
aI00
aI00
aI00
aI00
aI01
aI00
aI00
aI00
aI00
aI00
aI00
aI00
aI00
aI00
aa(lp37
I00
aI00
aI00
aI00
aI00
aI00
aI00
aI00
aI00
aI00
aI00
aI00
aI00
aI00
aI01
aI00
aa(lp38
I00
aI00
aI00
aI00
aI00
aI00
aI00
aI00
aI00
aI00
aI00
aI00
aI00
aI00
aI00
aI00
aa(lp39
I00
aI00
aI00
aI00
aI00
aI00
aI00
aI00
aI00
aI00
aI00
aI00
aI00
aI00
aI00
aI00
aa(lp40
I00
aI01
aI00
aI00
aI00
aI00
aI01
aI00
aI01
aI00
aI00
aI00
aI01
aI00
aI00
aI00
aa(lp41
I00
aI00
aI01
aI00
aI01
aI00
aI00
aI00
aI00
aI00
aI01
aI00
aI00
aI00
aI01
aI00
aa(lp42
I00
aI01
aI00
aI00
aI00
aI00
aI01
aI00
aI00
aI00
aI00
aI00
aI00
aI00
aI00
aI00
aa(lp43
I00
aI00
aI00
aI00
aI00
aI00
aI01
aI01
aI00
aI00
aI00
aI00
aI01
aI00
aI00
aI00
aa(lp44
I00
aI01
aI00
aI00
aI00
aI00
aI00
aI00
aI00
aI00
aI00
aI00
aI00
aI00
aI00
aI00
aa(lp45
I00
aI00
aI00
aI01
aI00
aI00
aI00
aI00
aI00
aI00
aI00
aI00
aI00
aI00
aI01
aI00
aa(lp46
I00
aI00
aI00
aI00
aI00
aI00
aI01
aI01
aI01
aI00
aI00
aI00
aI00
aI00
aI00
aI00
aa(lp47
I00
aI00
aI00
aI00
aI00
aI00
aI00
aI01
aI00
aI00
aI00
aI01
aI01
aI01
aI01
aI00
aa(lp48
I00
aI00
aI00
aI00
aI00
aI00
aI00
aI00
aI00
aI00
aI00
aI00
aI00
aI00
aI00
aI00
aa(lp49
I00
aI00
aI00
aI00
aI00
aI00
aI00
aI00
aI00
aI00
aI00
aI00
aI00
aI00
aI00
aI00
aa(lp50
I00
aI00
aI00
aI00
aI00
aI00
aI00
aI00
aI00
aI00
aI00
aI00
aI00
aI00
aI00
aI00
aasS'height'
p51
I16
sbsS'agentPositions'
p52
(lp53
(I00
(I1
I1
tp54
tp55
a(I00
(I30
I14
tp56
tp57
a(I00
(I1
I2
tp58
tp59
a(I00
(I30
I13
tp60
tp61
a(I00
(I1
I3
tp62
tp63
a(I00
(I30
I12
tp64
tp65
asg51
I16
sg16
I32
sS'walls'
p66
(igame
Grid
p67
(dp68
g15
I30
sg16
I32
sg17
(lp69
(lp70
I01
aI01
aI01
aI01
aI01
aI01
aI01
aI01
aI01
aI01
aI01
aI01
aI01
aI01
aI01
aI01
aa(lp71
I01
aI00
aI00
aI00
aI00
aI00
aI00
aI00
aI00
aI00
aI00
aI00
aI00
aI00
aI00
aI01
aa(lp72
I01
aI01
aI01
aI01
aI01
aI01
aI01
aI01
aI01
aI01
aI01
aI01
aI01
aI01
aI00
aI01
aa(lp73
I01
aI00
aI00
aI00
aI00
aI00
aI00
aI01
aI00
aI01
aI00
aI00
aI00
aI00
aI00
aI01
aa(lp74
I01
aI01
aI01
aI01
aI01
aI01
aI00
aI00
aI00
aI00
aI00
aI01
aI01
aI01
aI01
aI01
aa(lp75
I01
aI00
aI00
aI00
aI00
aI00
aI00
aI00
aI01
aI01
aI00
aI01
aI00
aI01
aI00
aI01
aa(lp76
I01
aI01
aI00
aI01
aI01
aI00
aI01
aI01
aI01
aI00
aI00
aI00
aI00
aI00
aI00
aI01
aa(lp77
I01
aI00
aI00
aI00
aI01
aI00
aI00
aI01
aI00
aI00
aI01
aI01
aI01
aI00
aI01
aI01
aa(lp78
I01
aI00
aI01
aI00
aI01
aI01
aI00
aI01
aI01
aI00
aI01
aI00
aI00
aI00
aI00
aI01
aa(lp79
I01
aI00
aI01
aI01
aI01
aI00
aI00
aI01
aI01
aI01
aI01
aI00
aI01
aI00
aI01
aI01
aa(lp80
I01
aI00
aI01
aI00
aI01
aI01
aI00
aI00
aI01
aI00
aI01
aI00
aI01
aI00
aI00
aI01
aa(lp81
I01
aI00
aI00
aI00
aI00
aI01
aI00
aI01
aI01
aI00
aI01
aI00
aI01
aI00
aI00
aI01
aa(lp82
I01
aI01
aI00
aI01
aI00
aI01
aI00
aI00
aI00
aI00
aI00
aI00
aI00
aI00
aI00
aI01
aa(lp83
I01
aI00
aI00
aI01
aI00
aI00
aI00
aI00
aI00
aI01
aI01
aI01
aI00
aI01
aI00
aI01
aa(lp84
I01
aI00
aI01
aI01
aI01
aI00
aI01
aI00
aI00
aI00
aI01
aI00
aI00
aI01
aI00
aI01
aa(lp85
I01
aI00
aI00
aI01
aI00
aI00
aI01
aI00
aI00
aI01
aI01
aI00
aI00
aI00
aI00
aI01
aa(lp86
I01
aI00
aI00
aI00
aI00
aI01
aI01
aI00
aI00
aI01
aI00
aI00
aI01
aI00
aI00
aI01
aa(lp87
I01
aI00
aI01
aI00
aI00
aI01
aI00
aI00
aI00
aI01
aI00
aI01
aI01
aI01
aI00
aI01
aa(lp88
I01
aI00
aI01
aI00
aI01
aI01
aI01
aI00
aI00
aI00
aI00
aI00
aI01
aI00
aI00
aI01
aa(lp89
I01
aI00
aI00
aI00
aI00
aI00
aI00
aI00
aI00
aI00
aI01
aI00
aI01
aI00
aI01
aI01
aa(lp90
I01
aI00
aI00
aI01
aI00
aI01
aI00
aI01
aI01
aI00
aI01
aI00
aI00
aI00
aI00
aI01
aa(lp91
I01
aI00
aI00
aI01
aI00
aI01
aI00
aI01
aI00
aI00
aI01
aI01
aI00
aI01
aI00
aI01
aa(lp92
I01
aI01
aI00
aI01
aI00
aI01
aI01
aI01
aI01
aI00
aI00
aI01
aI01
aI01
aI00
aI01
aa(lp93
I01
aI00
aI00
aI00
aI00
aI01
aI00
aI01
aI01
aI00
aI01
aI01
aI00
aI01
aI00
aI01
aa(lp94
I01
aI01
aI00
aI01
aI01
aI01
aI00
aI00
aI01
aI00
aI00
aI01
aI00
aI00
aI00
aI01
aa(lp95
I01
aI00
aI00
aI00
aI00
aI00
aI00
aI01
aI01
aI01
aI00
aI01
aI01
aI00
aI01
aI01
aa(lp96
I01
aI00
aI01
aI00
aI01
aI00
aI01
aI01
aI00
aI00
aI00
aI00
aI00
aI00
aI00
aI01
aa(lp97
I01
aI01
aI01
aI01
aI01
aI00
aI00
aI00
aI00
aI00
aI01
aI01
aI01
aI01
aI01
aI01
aa(lp98
I01
aI00
aI00
aI00
aI00
aI00
aI01
aI00
aI01
aI00
aI00
aI00
aI00
aI00
aI00
aI01
aa(lp99
I01
aI00
aI01
aI01
aI01
aI01
aI01
aI01
aI01
aI01
aI01
aI01
aI01
aI01
aI01
aI01
aa(lp100
I01
aI00
aI00
aI00
aI00
aI00
aI00
aI00
aI00
aI00
aI00
aI00
aI00
aI00
aI00
aI01
aa(lp101
I01
aI01
aI01
aI01
aI01
aI01
aI01
aI01
aI01
aI01
aI01
aI01
aI01
aI01
aI01
aI01
aasg51
I16
sbsS'flags'
p102
(lp103
(I28
I3
tp104
a(I3
I12
tp105
asS'totalFood'
p106
I52
sS'layoutText'
p107
(lp108
S'%%%%%%%%%%%%%%%%%%%%%%%%%%%%%%%%'
p109
aS'%   %o.%.%.       .%  .  %.%.%2%'
p110
aS'% % %%   .   %%  %   %%%   %.%4%'
p111
aS'% %F%. % %%%    %%%% .%o.% %.%6%'
p112
aS'% % %% % .   %   %   %%%%% %.% %'
p113
aS'% %    %%%%% %%%   %%%.%   % % %'
p114
aS'% %%.% ..%.  %.%%%       %   % %'
p115
aS'% %..%%.%%%%        %.%%%% .%% %'
p116
aS'% %%. %%%%.%        %%%%.%%..% %'
p117
aS'% %   %       %%%.%  .%.. %.%% %'
p118
aS'% % %   %.%%%   %%% %%%%%    % %'
p119
aS'% %.% %%%%%   %   %   . % %% % %'
p120
aS'%5%.% %.o%. %%%%    %%% % .%F% %'
p121
aS'%3%.%   %%%   %  %%   .   %% % %'
p122
aS'%1%.%.%  .  %.       .%.%.o%   %'
p123
aS'%%%%%%%%%%%%%%%%%%%%%%%%%%%%%%%%'
p124
asbsS'blueTeamName'
p125
S'baselineTeam'
p126
sS'actions'
p127
(lp128
(I1
S'South'
p129
tp130
a(I2
S'North'
p131
tp132
a(I3
g131
tp133
a(I4
g131
tp134
a(I5
g129
tp135
a(I0
g131
tp136
a(I1
g129
tp137
a(I2
g131
tp138
a(I3
g129
tp139
a(I4
g131
tp140
a(I5
g129
tp141
a(I0
g131
tp142
a(I1
g129
tp143
a(I2
g131
tp144
a(I3
g129
tp145
a(I4
g131
tp146
a(I5
g129
tp147
a(I0
g131
tp148
a(I1
g129
tp149
a(I2
g131
tp150
a(I3
g129
tp151
a(I4
g131
tp152
a(I5
g129
tp153
a(I0
g131
tp154
a(I1
g129
tp155
a(I2
g131
tp156
a(I3
g129
tp157
a(I4
g131
tp158
a(I5
g129
tp159
a(I0
g131
tp160
a(I1
g129
tp161
a(I2
g131
tp162
a(I3
g129
tp163
a(I4
g131
tp164
a(I5
g129
tp165
a(I0
g131
tp166
a(I1
g129
tp167
a(I2
g131
tp168
a(I3
g129
tp169
a(I4
g131
tp170
a(I5
g129
tp171
a(I0
g131
tp172
a(I1
g129
tp173
a(I2
g131
tp174
a(I3
g129
tp175
a(I4
g131
tp176
a(I5
g129
tp177
a(I0
g131
tp178
a(I1
g129
tp179
a(I2
g131
tp180
a(I3
g129
tp181
a(I4
g131
tp182
a(I5
g129
tp183
a(I0
g131
tp184
a(I1
g129
tp185
a(I2
g131
tp186
a(I3
g129
tp187
a(I4
g131
tp188
a(I5
g129
tp189
a(I0
g131
tp190
a(I1
g129
tp191
a(I2
g131
tp192
a(I3
g129
tp193
a(I4
g131
tp194
a(I5
g129
tp195
a(I0
g131
tp196
a(I1
g129
tp197
a(I2
g131
tp198
a(I3
g129
tp199
a(I4
S'East'
p200
tp201
a(I5
S'West'
p202
tp203
a(I0
g131
tp204
a(I1
g129
tp205
a(I2
g200
tp206
a(I3
g129
tp207
a(I4
g200
tp208
a(I5
g202
tp209
a(I0
g131
tp210
a(I1
g202
tp211
a(I2
g200
tp212
a(I3
g129
tp213
a(I4
g129
tp214
a(I5
g131
tp215
a(I0
g200
tp216
a(I1
g202
tp217
a(I2
g129
tp218
a(I3
g202
tp219
a(I4
g129
tp220
a(I5
g131
tp221
a(I0
g200
tp222
a(I1
g131
tp223
a(I2
g129
tp224
a(I3
g202
tp225
a(I4
g129
tp226
a(I5
g131
tp227
a(I0
g129
tp228
a(I1
g131
tp229
a(I2
S'Stop'
p230
tp231
a(I3
g131
tp232
a(I4
g129
tp233
a(I5
g131
tp234
a(I0
g129
tp235
a(I1
g131
tp236
a(I2
g230
tp237
a(I3
g131
tp238
a(I4
g200
tp239
a(I5
g202
tp240
a(I0
g129
tp241
a(I1
g131
tp242
a(I2
g230
tp243
a(I3
g131
tp244
a(I4
g200
tp245
a(I5
g131
tp246
a(I0
g129
tp247
a(I1
g202
tp248
a(I2
g230
tp249
a(I3
g131
tp250
a(I4
g200
tp251
a(I5
g131
tp252
a(I0
g200
tp253
a(I1
g202
tp254
a(I2
g230
tp255
a(I3
g202
tp256
a(I4
g131
tp257
a(I5
g131
tp258
a(I0
g200
tp259
a(I1
g202
tp260
a(I2
g230
tp261
a(I3
g202
tp262
a(I4
g131
tp263
a(I5
g131
tp264
a(I0
g200
tp265
a(I1
g129
tp266
a(I2
g230
tp267
a(I3
g202
tp268
a(I4
g131
tp269
a(I5
g202
tp270
a(I0
g131
tp271
a(I1
g129
tp272
a(I2
g230
tp273
a(I3
g131
tp274
a(I4
g200
tp275
a(I5
g131
tp276
a(I0
g131
tp277
a(I1
g129
tp278
a(I2
g230
tp279
a(I3
g202
tp280
a(I4
g200
tp281
a(I5
g202
tp282
a(I0
g131
tp283
a(I1
g202
tp284
a(I2
g230
tp285
a(I3
g131
tp286
a(I4
g200
tp287
a(I5
g202
tp288
a(I0
g200
tp289
a(I1
g202
tp290
a(I2
g230
tp291
a(I3
g129
tp292
a(I4
g200
tp293
a(I5
g129
tp294
a(I0
g200
tp295
a(I1
g202
tp296
a(I2
g230
tp297
a(I3
g200
tp298
a(I4
g200
tp299
a(I5
g202
tp300
a(I0
g200
tp301
a(I1
g202
tp302
a(I2
g230
tp303
a(I3
g129
tp304
a(I4
g200
tp305
a(I5
g202
tp306
a(I0
g200
tp307
a(I1
g202
tp308
a(I2
g230
tp309
a(I3
g129
tp310
a(I4
g129
tp311
a(I5
g202
tp312
a(I0
g200
tp313
a(I1
g202
tp314
a(I2
g230
tp315
a(I3
g129
tp316
a(I4
g200
tp317
a(I5
g202
tp318
a(I0
g200
tp319
a(I1
g129
tp320
a(I2
g230
tp321
a(I3
g129
tp322
a(I4
g200
tp323
a(I5
g202
tp324
a(I0
g131
tp325
a(I1
g202
tp326
a(I2
g230
tp327
a(I3
g129
tp328
a(I4
g129
tp329
a(I5
g129
tp330
a(I0
g200
tp331
a(I1
g202
tp332
a(I2
g230
tp333
a(I3
g200
tp334
a(I4
g200
tp335
a(I5
g202
tp336
a(I0
g200
tp337
a(I1
g202
tp338
a(I2
g230
tp339
a(I3
g202
tp340
a(I4
g200
tp341
a(I5
g202
tp342
a(I0
g200
tp343
a(I1
g202
tp344
a(I2
g230
tp345
a(I3
g131
tp346
a(I4
g129
tp347
a(I5
g200
tp348
a(I0
g200
tp349
a(I1
g202
tp350
a(I2
g230
tp351
a(I3
g202
tp352
a(I4
g200
tp353
a(I5
g131
tp354
a(I0
g200
tp355
a(I1
g202
tp356
a(I2
g230
tp357
a(I3
g202
tp358
a(I4
g202
tp359
a(I5
g131
tp360
a(I0
g200
tp361
a(I1
g131
tp362
a(I2
g230
tp363
a(I3
g131
tp364
a(I4
g131
tp365
a(I5
g202
tp366
a(I0
g129
tp367
a(I1
g202
tp368
a(I2
g230
tp369
a(I3
g131
tp370
a(I4
g202
tp371
a(I5
g202
tp372
a(I0
g200
tp373
a(I1
g202
tp374
a(I2
g230
tp375
a(I3
g202
tp376
a(I4
g202
tp377
a(I5
g131
tp378
a(I0
g200
tp379
a(I1
g131
tp380
a(I2
g230
tp381
a(I3
g202
tp382
a(I4
g131
tp383
a(I5
g129
tp384
a(I0
g131
tp385
a(I1
g202
tp386
a(I2
g230
tp387
a(I3
g202
tp388
a(I4
g200
tp389
a(I5
g200
tp390
a(I0
g200
tp391
a(I1
g200
tp392
a(I2
g230
tp393
a(I3
g202
tp394
a(I4
g129
tp395
a(I5
g200
tp396
a(I0
g200
tp397
a(I1
g129
tp398
a(I2
g230
tp399
a(I3
g129
tp400
a(I4
g200
tp401
a(I5
g202
tp402
a(I0
g200
tp403
a(I1
g129
tp404
a(I2
g230
tp405
a(I3
g131
tp406
a(I4
g202
tp407
a(I5
g202
tp408
a(I0
g200
tp409
a(I1
g202
tp410
a(I2
g230
tp411
a(I3
g200
tp412
a(I4
g202
tp413
a(I5
g131
tp414
a(I0
g129
tp415
a(I1
g202
tp416
a(I2
g230
tp417
a(I3
g200
tp418
a(I4
g131
tp419
a(I5
g129
tp420
a(I0
g200
tp421
a(I1
g202
tp422
a(I2
g230
tp423
a(I3
g200
tp424
a(I4
g200
tp425
a(I5
g200
tp426
a(I0
g200
tp427
a(I1
g202
tp428
a(I2
g230
tp429
a(I3
g200
tp430
a(I4
g129
tp431
a(I5
g200
tp432
a(I0
g129
tp433
a(I1
g131
tp434
a(I2
g230
tp435
a(I3
g129
tp436
a(I4
g200
tp437
a(I5
g202
tp438
a(I0
g129
tp439
a(I1
g131
tp440
a(I2
g230
tp441
a(I3
g131
tp442
a(I4
g202
tp443
a(I5
g202
tp444
a(I0
g129
tp445
a(I1
g129
tp446
a(I2
g230
tp447
a(I3
g202
tp448
a(I4
g131
tp449
a(I5
g131
tp450
a(I0
g129
tp451
a(I1
g202
tp452
a(I2
g230
tp453
a(I3
g202
tp454
a(I4
g202
tp455
a(I5
g129
tp456
a(I0
g129
tp457
a(I1
g202
tp458
a(I2
g230
tp459
a(I3
g202
tp460
a(I4
g200
tp461
a(I5
g200
tp462
a(I0
g200
tp463
a(I1
g129
tp464
a(I2
g230
tp465
a(I3
g202
tp466
a(I4
g129
tp467
a(I5
g200
tp468
a(I0
g129
tp469
a(I1
g131
tp470
a(I2
g230
tp471
a(I3
g131
tp472
a(I4
g200
tp473
a(I5
g202
tp474
a(I0
g129
tp475
a(I1
g131
tp476
a(I2
g230
tp477
a(I3
g131
tp478
a(I4
g202
tp479
a(I5
g202
tp480
a(I0
g129
tp481
a(I1
g131
tp482
a(I2
g230
tp483
a(I3
g200
tp484
a(I4
g202
tp485
a(I5
g131
tp486
a(I0
g202
tp487
a(I1
g131
tp488
a(I2
g230
tp489
a(I3
g200
tp490
a(I4
g131
tp491
a(I5
g129
tp492
a(I0
g202
tp493
a(I1
g131
tp494
a(I2
g230
tp495
a(I3
g202
tp496
a(I4
g200
tp497
a(I5
g200
tp498
a(I0
g129
tp499
a(I1
g131
tp500
a(I2
g230
tp501
a(I3
g202
tp502
a(I4
g129
tp503
a(I5
g200
tp504
a(I0
g129
tp505
a(I1
g202
tp506
a(I2
g230
tp507
a(I3
g129
tp508
a(I4
g200
tp509
a(I5
g202
tp510
a(I0
g200
tp511
a(I1
g131
tp512
a(I2
g230
tp513
a(I3
g131
tp514
a(I4
g202
tp515
a(I5
g202
tp516
a(I0
g202
tp517
a(I1
g202
tp518
a(I2
g230
tp519
a(I3
g131
tp520
a(I4
g131
tp521
a(I5
g131
tp522
a(I0
g129
tp523
a(I1
g200
tp524
a(I2
g230
tp525
a(I3
g131
tp526
a(I4
g131
tp527
a(I5
g129
tp528
a(I0
g129
tp529
a(I1
g131
tp530
a(I2
g230
tp531
a(I3
g202
tp532
a(I4
g230
tp533
a(I5
g200
tp534
a(I0
g200
tp535
a(I1
g131
tp536
a(I2
g230
tp537
a(I3
g131
tp538
a(I4
g129
tp539
a(I5
g200
tp540
a(I0
g202
tp541
a(I1
g200
tp542
a(I2
g230
tp543
a(I3
g200
tp544
a(I4
g129
tp545
a(I5
g131
tp546
a(I0
g131
tp547
a(I1
g200
tp548
a(I2
g230
tp549
a(I3
g200
tp550
a(I4
g200
tp551
a(I5
g129
tp552
a(I0
g202
tp553
a(I1
g129
tp554
a(I2
g230
tp555
a(I3
g202
tp556
a(I4
g129
tp557
a(I5
g202
tp558
a(I0
g202
tp559
a(I1
g200
tp560
a(I2
g230
tp561
a(I3
g202
tp562
a(I4
g200
tp563
a(I5
g129
tp564
a(I0
g202
tp565
a(I1
g129
tp566
a(I2
g230
tp567
a(I3
g131
tp568
a(I4
g200
tp569
a(I5
g129
tp570
a(I0
g200
tp571
a(I1
g131
tp572
a(I2
g230
tp573
a(I3
g129
tp574
a(I4
g129
tp575
a(I5
g129
tp576
a(I0
g129
tp577
a(I1
g200
tp578
a(I2
g230
tp579
a(I3
g129
tp580
a(I4
g200
tp581
a(I5
g129
tp582
a(I0
g131
tp583
a(I1
g202
tp584
a(I2
g230
tp585
a(I3
g129
tp586
a(I4
g200
tp587
a(I5
g129
tp588
a(I0
g200
tp589
a(I1
g202
tp590
a(I2
g230
tp591
a(I3
g129
tp592
a(I4
g200
tp593
a(I5
g129
tp594
a(I0
g200
tp595
a(I1
g131
tp596
a(I2
g230
tp597
a(I3
g129
tp598
a(I4
g129
tp599
a(I5
g129
tp600
a(I0
g131
tp601
a(I1
g131
tp602
a(I2
g230
tp603
a(I3
g129
tp604
a(I4
g131
tp605
a(I5
g129
tp606
a(I0
g131
tp607
a(I1
g131
tp608
a(I2
g230
tp609
a(I3
g129
tp610
a(I4
g202
tp611
a(I5
g129
tp612
a(I0
g129
tp613
a(I1
g202
tp614
a(I2
g230
tp615
a(I3
g129
tp616
a(I4
g202
tp617
a(I5
g129
tp618
a(I0
g129
tp619
a(I1
g200
tp620
a(I2
g230
tp621
a(I3
g129
tp622
a(I4
g202
tp623
a(I5
g129
tp624
a(I0
g202
tp625
a(I1
g131
tp626
a(I2
g230
tp627
a(I3
g129
tp628
a(I4
g200
tp629
a(I5
g202
tp630
a(I0
g200
tp631
a(I1
g131
tp632
a(I2
g230
tp633
a(I3
g129
tp634
a(I4
g200
tp635
a(I5
g202
tp636
a(I0
g131
tp637
a(I1
g129
tp638
a(I2
g230
tp639
a(I3
g129
tp640
a(I4
g200
tp641
a(I5
g131
tp642
a(I0
g131
tp643
a(I1
g200
tp644
a(I2
g230
tp645
a(I3
g202
tp646
a(I4
g200
tp647
a(I5
g131
tp648
a(I0
g131
tp649
a(I1
g200
tp650
a(I2
g230
tp651
a(I3
g202
tp652
a(I4
g131
tp653
a(I5
g131
tp654
a(I0
g200
tp655
a(I1
g131
tp656
a(I2
g230
tp657
a(I3
g131
tp658
a(I4
g129
tp659
a(I5
g131
tp660
a(I0
g202
tp661
a(I1
g129
tp662
a(I2
g230
tp663
a(I3
g131
tp664
a(I4
g200
tp665
a(I5
g202
tp666
a(I0
g129
tp667
a(I1
g200
tp668
a(I2
g230
tp669
a(I3
g131
tp670
a(I4
g200
tp671
a(I5
g202
tp672
a(I0
g129
tp673
a(I1
g200
tp674
a(I2
g230
tp675
a(I3
g131
tp676
a(I4
g131
tp677
a(I5
g202
tp678
a(I0
g129
tp679
a(I1
g131
tp680
a(I2
g230
tp681
a(I3
g202
tp682
a(I4
g200
tp683
a(I5
g129
tp684
a(I0
g202
tp685
a(I1
g129
tp686
a(I2
g230
tp687
a(I3
g202
tp688
a(I4
g200
tp689
a(I5
g129
tp690
a(I0
g202
tp691
a(I1
g202
tp692
a(I2
g230
tp693
a(I3
g202
tp694
a(I4
g129
tp695
a(I5
g129
tp696
a(I0
g131
tp697
a(I1
g202
tp698
a(I2
g230
tp699
a(I3
g129
tp700
a(I4
g129
tp701
a(I5
g202
tp702
a(I0
g131
tp703
a(I1
g129
tp704
a(I2
g230
tp705
a(I3
g129
tp706
a(I4
g200
tp707
a(I5
g202
tp708
a(I0
g202
tp709
a(I1
g129
tp710
a(I2
g230
tp711
a(I3
g129
tp712
a(I4
g129
tp713
a(I5
g131
tp714
a(I0
g202
tp715
a(I1
g200
tp716
a(I2
g230
tp717
a(I3
g202
tp718
a(I4
g200
tp719
a(I5
g131
tp720
a(I0
g202
tp721
a(I1
g200
tp722
a(I2
g230
tp723
a(I3
g202
tp724
a(I4
g202
tp725
a(I5
g202
tp726
a(I0
g202
tp727
a(I1
g200
tp728
a(I2
g230
tp729
a(I3
g131
tp730
a(I4
g129
tp731
a(I5
g202
tp732
a(I0
g131
tp733
a(I1
g200
tp734
a(I2
g230
tp735
a(I3
g131
tp736
a(I4
g129
tp737
a(I5
g202
tp738
a(I0
g131
tp739
a(I1
g129
tp740
a(I2
g230
tp741
a(I3
g202
tp742
a(I4
g200
tp743
a(I5
g202
tp744
a(I0
g131
tp745
a(I1
g129
tp746
a(I2
g230
tp747
a(I3
g202
tp748
a(I4
g230
tp749
a(I5
g131
tp750
a(I0
g131
tp751
a(I1
g202
tp752
a(I2
g230
tp753
a(I3
g202
tp754
a(I4
g230
tp755
a(I5
g131
tp756
a(I0
g131
tp757
a(I1
g202
tp758
a(I2
g230
tp759
a(I3
g202
tp760
a(I4
g202
tp761
a(I5
g131
tp762
a(I0
g202
tp763
a(I1
g200
tp764
a(I2
g230
tp765
a(I3
g131
tp766
a(I4
g230
tp767
a(I5
g202
tp768
a(I0
g131
tp769
a(I1
g200
tp770
a(I2
g230
tp771
a(I3
g131
tp772
a(I4
g230
tp773
a(I5
g131
tp774
a(I0
g202
tp775
a(I1
g129
tp776
a(I2
g230
tp777
a(I3
g131
tp778
a(I4
g230
tp779
a(I5
g131
tp780
a(I0
g202
tp781
a(I1
g200
tp782
a(I2
g230
tp783
a(I3
g202
tp784
a(I4
g230
tp785
a(I5
g131
tp786
a(I0
g131
tp787
a(I1
g200
tp788
a(I2
g230
tp789
a(I3
g131
tp790
a(I4
g230
tp791
a(I5
g202
tp792
a(I0
g202
tp793
a(I1
g131
tp794
a(I2
g230
tp795
a(I3
g202
tp796
a(I4
g230
tp797
a(I5
g202
tp798
a(I0
g202
tp799
a(I1
g129
tp800
a(I2
g230
tp801
a(I3
g202
tp802
a(I4
g200
tp803
a(I5
g131
tp804
a(I0
g131
tp805
a(I1
g202
tp806
a(I2
g230
tp807
a(I3
g129
tp808
a(I4
g202
tp809
a(I5
g129
tp810
a(I0
g200
tp811
a(I1
g202
tp812
a(I2
g230
tp813
a(I3
g200
tp814
a(I4
g230
tp815
a(I5
g200
tp816
a(I0
g131
tp817
a(I1
g129
tp818
a(I2
g230
tp819
a(I3
g200
tp820
a(I4
g230
tp821
a(I5
g200
tp822
a(I0
g131
tp823
a(I1
g129
tp824
a(I2
g230
tp825
a(I3
g200
tp826
a(I4
g230
tp827
a(I5
g131
tp828
a(I0
g200
tp829
a(I1
g202
tp830
a(I2
g230
tp831
a(I3
g129
tp832
a(I4
g230
tp833
a(I5
g200
tp834
a(I0
g200
tp835
a(I1
g202
tp836
a(I2
g230
tp837
a(I3
g200
tp838
a(I4
g200
tp839
a(I5
g200
tp840
a(I0
g200
tp841
a(I1
g131
tp842
a(I2
g230
tp843
a(I3
g200
tp844
a(I4
g230
tp845
a(I5
g131
tp846
a(I0
g129
tp847
a(I1
g129
tp848
a(I2
g230
tp849
a(I3
g202
tp850
a(I4
g230
tp851
a(I5
g131
tp852
a(I0
g131
tp853
a(I1
g202
tp854
a(I2
g230
tp855
a(I3
g202
tp856
a(I4
g129
tp857
a(I5
g202
tp858
a(I0
g202
tp859
a(I1
g129
tp860
a(I2
g230
tp861
a(I3
g131
tp862
a(I4
g129
tp863
a(I5
g202
tp864
a(I0
g202
tp865
a(I1
g131
tp866
a(I2
g230
tp867
a(I3
g202
tp868
a(I4
g131
tp869
a(I5
g131
tp870
a(I0
g129
tp871
a(I1
g202
tp872
a(I2
g230
tp873
a(I3
g131
tp874
a(I4
g131
tp875
a(I5
g202
tp876
a(I0
g202
tp877
a(I1
g202
tp878
a(I2
g230
tp879
a(I3
g131
tp880
a(I4
g202
tp881
a(I5
g202
tp882
a(I0
g129
tp883
a(I1
g129
tp884
a(I2
g230
tp885
a(I3
g131
tp886
a(I4
g131
tp887
a(I5
g129
tp888
a(I0
g129
tp889
a(I1
g202
tp890
a(I2
g230
tp891
a(I3
g202
tp892
a(I4
g131
tp893
a(I5
g131
tp894
a(I0
g202
tp895
a(I1
g202
tp896
a(I2
g230
tp897
a(I3
g202
tp898
a(I4
g131
tp899
a(I5
g200
tp900
a(I0
g131
tp901
a(I1
g131
tp902
a(I2
g230
tp903
a(I3
g131
tp904
a(I4
g202
tp905
a(I5
g200
tp906
a(I0
g202
tp907
a(I1
g202
tp908
a(I2
g230
tp909
a(I3
g129
tp910
a(I4
g131
tp911
a(I5
g129
tp912
a(I0
g200
tp913
a(I1
g202
tp914
a(I2
g230
tp915
a(I3
g200
tp916
a(I4
g131
tp917
a(I5
g200
tp918
a(I0
g200
tp919
a(I1
g129
tp920
a(I2
g230
tp921
a(I3
g200
tp922
a(I4
g202
tp923
a(I5
g200
tp924
a(I0
g131
tp925
a(I1
g129
tp926
a(I2
g230
tp927
a(I3
g129
tp928
a(I4
g202
tp929
a(I5
g131
tp930
a(I0
g131
tp931
a(I1
g129
tp932
a(I2
g230
tp933
a(I3
g200
tp934
a(I4
g129
tp935
a(I5
g200
tp936
a(I0
g200
tp937
a(I1
g131
tp938
a(I2
g230
tp939
a(I3
g200
tp940
a(I4
g202
tp941
a(I5
g200
tp942
a(I0
g200
tp943
a(I1
g131
tp944
a(I2
g230
tp945
a(I3
g200
tp946
a(I4
g200
tp947
a(I5
g200
tp948
a(I0
g200
tp949
a(I1
g131
tp950
a(I2
g230
tp951
a(I3
g200
tp952
a(I4
g131
tp953
a(I5
g200
tp954
a(I0
g129
tp955
a(I1
g200
tp956
a(I2
g230
tp957
a(I3
g200
tp958
a(I4
g200
tp959
a(I5
g129
tp960
a(I0
g200
tp961
a(I1
g200
tp962
a(I2
g230
tp963
a(I3
g200
tp964
a(I4
g200
tp965
a(I5
g200
tp966
a(I0
g200
tp967
a(I1
g129
tp968
a(I2
g230
tp969
a(I3
g131
tp970
a(I4
g129
tp971
a(I5
g200
tp972
a(I0
g131
tp973
a(I1
g200
tp974
a(I2
g230
tp975
a(I3
g200
tp976
a(I4
g200
tp977
a(I5
g129
tp978
a(I0
g230
tp979
a(I1
g200
tp980
a(I2
g230
tp981
a(I3
g200
tp982
a(I4
g129
tp983
a(I5
g129
tp984
a(I0
g200
tp985
a(I1
g131
tp986
a(I2
g230
tp987
a(I3
g129
tp988
a(I4
g129
tp989
a(I5
g129
tp990
a(I0
g200
tp991
a(I1
g200
tp992
a(I2
g230
tp993
a(I3
g200
tp994
a(I4
g129
tp995
a(I5
g129
tp996
a(I0
g200
tp997
a(I1
g200
tp998
a(I2
g230
tp999
a(I3
g129
tp1000
a(I4
g129
tp1001
a(I5
g200
tp1002
a(I0
g200
tp1003
a(I1
g200
tp1004
a(I2
g230
tp1005
a(I3
g129
tp1006
a(I4
g202
tp1007
a(I5
g129
tp1008
a(I0
g129
tp1009
a(I1
g200
tp1010
a(I2
g230
tp1011
a(I3
g129
tp1012
a(I4
g202
tp1013
a(I5
g129
tp1014
a(I0
g129
tp1015
a(I1
g200
tp1016
a(I2
g230
tp1017
a(I3
g129
tp1018
a(I4
g129
tp1019
a(I5
g129
tp1020
a(I0
g202
tp1021
a(I1
g200
tp1022
a(I2
g230
tp1023
a(I3
g200
tp1024
a(I4
g129
tp1025
a(I5
g129
tp1026
a(I0
g200
tp1027
a(I1
g129
tp1028
a(I2
g230
tp1029
a(I3
g129
tp1030
a(I4
g129
tp1031
a(I5
g200
tp1032
a(I0
g131
tp1033
a(I1
g200
tp1034
a(I2
g230
tp1035
a(I3
g129
tp1036
a(I4
g202
tp1037
a(I5
g129
tp1038
a(I0
g200
tp1039
a(I1
g200
tp1040
a(I2
g230
tp1041
a(I3
g129
tp1042
a(I4
g202
tp1043
a(I5
g129
tp1044
a(I0
g200
tp1045
a(I1
g129
tp1046
a(I2
g230
tp1047
a(I3
g129
tp1048
a(I4
g202
tp1049
a(I5
g129
tp1050
a(I0
g131
tp1051
a(I1
g200
tp1052
a(I2
g230
tp1053
a(I3
g200
tp1054
a(I4
g202
tp1055
a(I5
g129
tp1056
a(I0
g129
tp1057
a(I1
g200
tp1058
a(I2
g230
tp1059
a(I3
g200
tp1060
a(I4
g202
tp1061
a(I5
g200
tp1062
a(I0
g129
tp1063
a(I1
g129
tp1064
a(I2
g230
tp1065
a(I3
g131
tp1066
a(I4
g202
tp1067
a(I5
g200
tp1068
a(I0
g129
tp1069
a(I1
g200
tp1070
a(I2
g230
tp1071
a(I3
g131
tp1072
a(I4
g129
tp1073
a(I5
g131
tp1074
a(I0
g129
tp1075
a(I1
g200
tp1076
a(I2
g230
tp1077
a(I3
g131
tp1078
a(I4
g200
tp1079
a(I5
g131
tp1080
a(I0
g202
tp1081
a(I1
g129
tp1082
a(I2
g230
tp1083
a(I3
g131
tp1084
a(I4
g200
tp1085
a(I5
g131
tp1086
a(I0
g202
tp1087
a(I1
g200
tp1088
a(I2
g230
tp1089
a(I3
g131
tp1090
a(I4
g230
tp1091
a(I5
g131
tp1092
a(I0
g129
tp1093
a(I1
g200
tp1094
a(I2
g230
tp1095
a(I3
g131
tp1096
a(I4
g202
tp1097
a(I5
g131
tp1098
a(I0
g202
tp1099
a(I1
g200
tp1100
a(I2
g230
tp1101
a(I3
g131
tp1102
a(I4
g202
tp1103
a(I5
g131
tp1104
a(I0
g202
tp1105
a(I1
g200
tp1106
a(I2
g230
tp1107
a(I3
g131
tp1108
a(I4
g202
tp1109
a(I5
g131
tp1110
a(I0
g202
tp1111
a(I1
g200
tp1112
a(I2
g230
tp1113
a(I3
g131
tp1114
a(I4
g202
tp1115
a(I5
g131
tp1116
a(I0
g202
tp1117
a(I1
g200
tp1118
a(I2
g230
tp1119
a(I3
g131
tp1120
a(I4
g202
tp1121
a(I5
g131
tp1122
a(I0
g202
tp1123
a(I1
g131
tp1124
a(I2
g230
tp1125
a(I3
g131
tp1126
a(I4
g131
tp1127
a(I5
g131
tp1128
a(I0
g129
tp1129
a(I1
g131
tp1130
a(I2
g230
tp1131
a(I3
g131
tp1132
a(I4
g131
tp1133
a(I5
g131
tp1134
a(I0
g202
tp1135
a(I1
g131
tp1136
a(I2
g230
tp1137
a(I3
g230
tp1138
a(I4
g131
tp1139
a(I5
g230
tp1140
a(I0
g129
tp1141
a(I1
g200
tp1142
a(I2
g230
tp1143
a(I3
g230
tp1144
a(I4
g202
tp1145
a(I5
g230
tp1146
a(I0
g202
tp1147
a(I1
g200
tp1148
a(I2
g230
tp1149
a(I3
g230
tp1150
a(I4
g131
tp1151
a(I5
g230
tp1152
a(I0
g129
tp1153
a(I1
g200
tp1154
a(I2
g230
tp1155
a(I3
g230
tp1156
a(I4
g202
tp1157
a(I5
g230
tp1158
a(I0
g131
tp1159
a(I1
g129
tp1160
a(I2
g230
tp1161
a(I3
g230
tp1162
a(I4
g202
tp1163
a(I5
g230
tp1164
a(I0
g200
tp1165
a(I1
g129
tp1166
a(I2
g230
tp1167
a(I3
g230
tp1168
a(I4
g131
tp1169
a(I5
g230
tp1170
a(I0
g200
tp1171
a(I1
g129
tp1172
a(I2
g230
tp1173
a(I3
g230
tp1174
a(I4
g131
tp1175
a(I5
g230
tp1176
a(I0
g129
tp1177
a(I1
g129
tp1178
a(I2
g230
tp1179
a(I3
g230
tp1180
a(I4
g230
tp1181
a(I5
g230
tp1182
a(I0
g200
tp1183
a(I1
g200
tp1184
a(I2
g230
tp1185
a(I3
g230
tp1186
a(I4
g230
tp1187
a(I5
g230
tp1188
a(I0
g200
tp1189
a(I1
g200
tp1190
a(I2
g230
tp1191
a(I3
g230
tp1192
a(I4
g230
tp1193
a(I5
g230
tp1194
a(I0
g202
tp1195
a(I1
g131
tp1196
a(I2
g230
tp1197
a(I3
g230
tp1198
a(I4
g230
tp1199
a(I5
g230
tp1200
a(I0
g202
tp1201
a(I1
g131
tp1202
a(I2
g230
tp1203
a(I3
g230
tp1204
a(I4
g230
tp1205
a(I5
g230
tp1206
a(I0
g131
tp1207
a(I1
g131
tp1208
a(I2
g230
tp1209
a(I3
g230
tp1210
a(I4
g230
tp1211
a(I5
g230
tp1212
a(I0
g131
tp1213
a(I1
g131
tp1214
a(I2
g230
tp1215
a(I3
g230
tp1216
a(I4
g230
tp1217
a(I5
g230
tp1218
a(I0
g202
tp1219
a(I1
g131
tp1220
a(I2
g230
tp1221
a(I3
g230
tp1222
a(I4
g230
tp1223
a(I5
g230
tp1224
a(I0
g131
tp1225
a(I1
g131
tp1226
a(I2
g230
tp1227
a(I3
g230
tp1228
a(I4
g230
tp1229
a(I5
g230
tp1230
a(I0
g131
tp1231
a(I1
g131
tp1232
a(I2
g230
tp1233
a(I3
g230
tp1234
a(I4
g230
tp1235
a(I5
g230
tp1236
a(I0
g131
tp1237
a(I1
g131
tp1238
a(I2
g230
tp1239
a(I3
g230
tp1240
a(I4
g230
tp1241
a(I5
g230
tp1242
a(I0
g200
tp1243
a(I1
g131
tp1244
a(I2
g230
tp1245
a(I3
g230
tp1246
a(I4
g230
tp1247
a(I5
g230
tp1248
a(I0
g200
tp1249
a(I1
g131
tp1250
a(I2
g230
tp1251
a(I3
g230
tp1252
a(I4
g230
tp1253
a(I5
g230
tp1254
a(I0
g131
tp1255
a(I1
g131
tp1256
a(I2
g230
tp1257
a(I3
g230
tp1258
a(I4
g230
tp1259
a(I5
g230
tp1260
a(I0
g200
tp1261
a(I1
g131
tp1262
a(I2
g230
tp1263
a(I3
g230
tp1264
a(I4
g230
tp1265
a(I5
g230
tp1266
a(I0
g202
tp1267
a(I1
g131
tp1268
a(I2
g230
tp1269
a(I3
g230
tp1270
a(I4
g230
tp1271
a(I5
g230
tp1272
a(I0
g131
tp1273
a(I1
g230
tp1274
a(I2
g230
tp1275
a(I3
g230
tp1276
a(I4
g230
tp1277
a(I5
g230
tp1278
a(I0
g131
tp1279
a(I1
g230
tp1280
a(I2
g230
tp1281
a(I3
g230
tp1282
a(I4
g230
tp1283
a(I5
g230
tp1284
a(I0
g200
tp1285
a(I1
g230
tp1286
a(I2
g230
tp1287
a(I3
g230
tp1288
a(I4
g230
tp1289
a(I5
g230
tp1290
a(I0
g200
tp1291
a(I1
g230
tp1292
a(I2
g230
tp1293
a(I3
g230
tp1294
a(I4
g230
tp1295
a(I5
g230
tp1296
a(I0
g200
tp1297
a(I1
g230
tp1298
a(I2
g230
tp1299
a(I3
g230
tp1300
a(I4
g230
tp1301
a(I5
g230
tp1302
a(I0
g200
tp1303
a(I1
g230
tp1304
a(I2
g230
tp1305
a(I3
g230
tp1306
a(I4
g230
tp1307
a(I5
g230
tp1308
a(I0
g202
tp1309
a(I1
g230
tp1310
a(I2
g230
tp1311
a(I3
g230
tp1312
a(I4
g230
tp1313
a(I5
g230
tp1314
a(I0
g202
tp1315
a(I1
g230
tp1316
a(I2
g230
tp1317
a(I3
g230
tp1318
a(I4
g230
tp1319
a(I5
g230
tp1320
a(I0
g202
tp1321
a(I1
g230
tp1322
a(I2
g230
tp1323
a(I3
g230
tp1324
a(I4
g230
tp1325
a(I5
g230
tp1326
a(I0
g202
tp1327
a(I1
g230
tp1328
a(I2
g230
tp1329
a(I3
g230
tp1330
a(I4
g230
tp1331
a(I5
g230
tp1332
a(I0
g129
tp1333
a(I1
g230
tp1334
a(I2
g230
tp1335
a(I3
g230
tp1336
a(I4
g230
tp1337
a(I5
g230
tp1338
a(I0
g129
tp1339
a(I1
g230
tp1340
a(I2
g230
tp1341
a(I3
g230
tp1342
a(I4
g230
tp1343
a(I5
g230
tp1344
a(I0
g129
tp1345
a(I1
g230
tp1346
a(I2
g230
tp1347
a(I3
g230
tp1348
a(I4
g230
tp1349
a(I5
g230
tp1350
a(I0
g202
tp1351
a(I1
g230
tp1352
a(I2
g230
tp1353
a(I3
g230
tp1354
a(I4
g230
tp1355
a(I5
g230
tp1356
a(I0
g202
tp1357
a(I1
g230
tp1358
a(I2
g230
tp1359
a(I3
g230
tp1360
a(I4
g230
tp1361
a(I5
g230
tp1362
a(I0
g129
tp1363
a(I1
g230
tp1364
a(I2
g230
tp1365
a(I3
g230
tp1366
a(I4
g230
tp1367
a(I5
g230
tp1368
a(I0
g129
tp1369
a(I1
g230
tp1370
a(I2
g230
tp1371
a(I3
g230
tp1372
a(I4
g230
tp1373
a(I5
g230
tp1374
a(I0
g129
tp1375
a(I1
g230
tp1376
a(I2
g230
tp1377
a(I3
g230
tp1378
a(I4
g230
tp1379
a(I5
g230
tp1380
a(I0
g202
tp1381
a(I1
g230
tp1382
a(I2
g230
tp1383
a(I3
g230
tp1384
a(I4
g230
tp1385
a(I5
g230
tp1386
a(I0
g129
tp1387
a(I1
g230
tp1388
a(I2
g230
tp1389
a(I3
g230
tp1390
a(I4
g230
tp1391
a(I5
g230
tp1392
a(I0
g202
tp1393
a(I1
g230
tp1394
a(I2
g230
tp1395
a(I3
g230
tp1396
a(I4
g230
tp1397
a(I5
g230
tp1398
a(I0
g202
tp1399
a(I1
g230
tp1400
a(I2
g230
tp1401
a(I3
g230
tp1402
a(I4
g230
tp1403
a(I5
g230
tp1404
a(I0
g202
tp1405
a(I1
g230
tp1406
a(I2
g230
tp1407
a(I3
g230
tp1408
a(I4
g230
tp1409
a(I5
g230
tp1410
a(I0
g202
tp1411
a(I1
g230
tp1412
a(I2
g230
tp1413
a(I3
g230
tp1414
a(I4
g230
tp1415
a(I5
g230
tp1416
a(I0
g230
tp1417
a(I1
g230
tp1418
a(I2
g230
tp1419
a(I3
g230
tp1420
a(I4
g230
tp1421
a(I5
g230
tp1422
a(I0
g230
tp1423
a(I1
g230
tp1424
a(I2
g230
tp1425
a(I3
g230
tp1426
a(I4
g230
tp1427
a(I5
g230
tp1428
a(I0
g230
tp1429
a(I1
g230
tp1430
a(I2
g230
tp1431
a(I3
g230
tp1432
a(I4
g230
tp1433
a(I5
g230
tp1434
a(I0
g230
tp1435
a(I1
g230
tp1436
a(I2
g230
tp1437
a(I3
g230
tp1438
a(I4
g230
tp1439
a(I5
g230
tp1440
a(I0
g230
tp1441
a(I1
g230
tp1442
a(I2
g230
tp1443
a(I3
g230
tp1444
a(I4
g230
tp1445
a(I5
g230
tp1446
a(I0
g230
tp1447
a(I1
g230
tp1448
a(I2
g230
tp1449
a(I3
g230
tp1450
a(I4
g230
tp1451
a(I5
g230
tp1452
a(I0
g230
tp1453
a(I1
g230
tp1454
a(I2
g230
tp1455
a(I3
g230
tp1456
a(I4
g230
tp1457
a(I5
g230
tp1458
a(I0
g230
tp1459
a(I1
g230
tp1460
a(I2
g230
tp1461
a(I3
g230
tp1462
a(I4
g230
tp1463
a(I5
g230
tp1464
a(I0
g230
tp1465
a(I1
g230
tp1466
a(I2
g230
tp1467
a(I3
g230
tp1468
a(I4
g230
tp1469
a(I5
g230
tp1470
a(I0
g230
tp1471
a(I1
g230
tp1472
a(I2
g230
tp1473
a(I3
g230
tp1474
a(I4
g230
tp1475
a(I5
g230
tp1476
a(I0
g230
tp1477
a(I1
g230
tp1478
a(I2
g230
tp1479
a(I3
g230
tp1480
a(I4
g230
tp1481
a(I5
g230
tp1482
a(I0
g230
tp1483
a(I1
g230
tp1484
a(I2
g230
tp1485
a(I3
g230
tp1486
a(I4
g230
tp1487
a(I5
g230
tp1488
a(I0
g230
tp1489
a(I1
g230
tp1490
a(I2
g230
tp1491
a(I3
g230
tp1492
a(I4
g230
tp1493
a(I5
g230
tp1494
a(I0
g230
tp1495
a(I1
g230
tp1496
a(I2
g230
tp1497
a(I3
g230
tp1498
a(I4
g230
tp1499
a(I5
g230
tp1500
a(I0
g230
tp1501
a(I1
g230
tp1502
a(I2
g230
tp1503
a(I3
g230
tp1504
a(I4
g230
tp1505
a(I5
g230
tp1506
a(I0
g230
tp1507
a(I1
g230
tp1508
a(I2
g230
tp1509
a(I3
g230
tp1510
a(I4
g230
tp1511
a(I5
g230
tp1512
a(I0
g230
tp1513
a(I1
g230
tp1514
a(I2
g230
tp1515
a(I3
g230
tp1516
a(I4
g230
tp1517
a(I5
g230
tp1518
a(I0
g230
tp1519
a(I1
g230
tp1520
a(I2
g230
tp1521
a(I3
g230
tp1522
a(I4
g230
tp1523
a(I5
g230
tp1524
a(I0
g230
tp1525
a(I1
g230
tp1526
a(I2
g230
tp1527
a(I3
g230
tp1528
a(I4
g230
tp1529
a(I5
g230
tp1530
a(I0
g230
tp1531
a(I1
g230
tp1532
a(I2
g230
tp1533
a(I3
g230
tp1534
a(I4
g230
tp1535
a(I5
g230
tp1536
a(I0
g230
tp1537
a(I1
g230
tp1538
a(I2
g230
tp1539
a(I3
g230
tp1540
a(I4
g230
tp1541
a(I5
g230
tp1542
a(I0
g230
tp1543
a(I1
g230
tp1544
a(I2
g230
tp1545
a(I3
g230
tp1546
a(I4
g230
tp1547
a(I5
g230
tp1548
a(I0
g230
tp1549
a(I1
g230
tp1550
a(I2
g230
tp1551
a(I3
g230
tp1552
a(I4
g230
tp1553
a(I5
g230
tp1554
a(I0
g230
tp1555
a(I1
g230
tp1556
a(I2
g230
tp1557
a(I3
g230
tp1558
a(I4
g230
tp1559
a(I5
g230
tp1560
a(I0
g230
tp1561
a(I1
g230
tp1562
a(I2
g230
tp1563
a(I3
g230
tp1564
a(I4
g230
tp1565
a(I5
g230
tp1566
a(I0
g230
tp1567
a(I1
g230
tp1568
a(I2
g230
tp1569
a(I3
g230
tp1570
a(I4
g230
tp1571
a(I5
g230
tp1572
a(I0
g230
tp1573
a(I1
g230
tp1574
a(I2
g230
tp1575
a(I3
g230
tp1576
a(I4
g230
tp1577
a(I5
g230
tp1578
a(I0
g230
tp1579
a(I1
g230
tp1580
a(I2
g230
tp1581
a(I3
g230
tp1582
a(I4
g230
tp1583
a(I5
g230
tp1584
a(I0
g230
tp1585
a(I1
g230
tp1586
a(I2
g230
tp1587
a(I3
g230
tp1588
a(I4
g230
tp1589
a(I5
g230
tp1590
a(I0
g230
tp1591
a(I1
g230
tp1592
a(I2
g230
tp1593
a(I3
g230
tp1594
a(I4
g230
tp1595
a(I5
g230
tp1596
a(I0
g230
tp1597
a(I1
g230
tp1598
a(I2
g230
tp1599
a(I3
g230
tp1600
a(I4
g230
tp1601
a(I5
g230
tp1602
a(I0
g230
tp1603
a(I1
g230
tp1604
a(I2
g230
tp1605
a(I3
g230
tp1606
a(I4
g230
tp1607
a(I5
g230
tp1608
a(I0
g230
tp1609
a(I1
g230
tp1610
a(I2
g230
tp1611
a(I3
g230
tp1612
a(I4
g230
tp1613
a(I5
g230
tp1614
a(I0
g230
tp1615
a(I1
g230
tp1616
a(I2
g230
tp1617
a(I3
g230
tp1618
a(I4
g230
tp1619
a(I5
g230
tp1620
a(I0
g230
tp1621
a(I1
g230
tp1622
a(I2
g230
tp1623
a(I3
g230
tp1624
a(I4
g230
tp1625
a(I5
g230
tp1626
a(I0
g230
tp1627
a(I1
g230
tp1628
a(I2
g230
tp1629
a(I3
g230
tp1630
a(I4
g230
tp1631
a(I5
g230
tp1632
a(I0
g230
tp1633
a(I1
g230
tp1634
a(I2
g230
tp1635
a(I3
g230
tp1636
a(I4
g230
tp1637
a(I5
g230
tp1638
a(I0
g230
tp1639
a(I1
g230
tp1640
a(I2
g230
tp1641
a(I3
g230
tp1642
a(I4
g230
tp1643
a(I5
g230
tp1644
a(I0
g230
tp1645
a(I1
g230
tp1646
a(I2
g230
tp1647
a(I3
g230
tp1648
a(I4
g230
tp1649
a(I5
g230
tp1650
a(I0
g230
tp1651
a(I1
g230
tp1652
a(I2
g230
tp1653
a(I3
g230
tp1654
a(I4
g230
tp1655
a(I5
g230
tp1656
a(I0
g230
tp1657
a(I1
g230
tp1658
a(I2
g230
tp1659
a(I3
g230
tp1660
a(I4
g230
tp1661
a(I5
g230
tp1662
a(I0
g230
tp1663
a(I1
g230
tp1664
a(I2
g230
tp1665
a(I3
g230
tp1666
a(I4
g230
tp1667
a(I5
g230
tp1668
a(I0
g230
tp1669
a(I1
g230
tp1670
a(I2
g230
tp1671
a(I3
g230
tp1672
a(I4
g230
tp1673
a(I5
g230
tp1674
a(I0
g230
tp1675
a(I1
g230
tp1676
a(I2
g230
tp1677
a(I3
g230
tp1678
a(I4
g230
tp1679
a(I5
g230
tp1680
a(I0
g230
tp1681
a(I1
g230
tp1682
a(I2
g230
tp1683
a(I3
g230
tp1684
a(I4
g230
tp1685
a(I5
g230
tp1686
a(I0
g230
tp1687
a(I1
g230
tp1688
a(I2
g230
tp1689
a(I3
g230
tp1690
a(I4
g230
tp1691
a(I5
g230
tp1692
a(I0
g230
tp1693
a(I1
g230
tp1694
a(I2
g230
tp1695
a(I3
g230
tp1696
a(I4
g230
tp1697
a(I5
g230
tp1698
a(I0
g230
tp1699
a(I1
g230
tp1700
a(I2
g230
tp1701
a(I3
g230
tp1702
a(I4
g230
tp1703
a(I5
g230
tp1704
a(I0
g230
tp1705
a(I1
g230
tp1706
a(I2
g230
tp1707
a(I3
g230
tp1708
a(I4
g230
tp1709
a(I5
g230
tp1710
a(I0
g230
tp1711
a(I1
g230
tp1712
a(I2
g230
tp1713
a(I3
g230
tp1714
a(I4
g230
tp1715
a(I5
g230
tp1716
a(I0
g230
tp1717
a(I1
g230
tp1718
a(I2
g230
tp1719
a(I3
g230
tp1720
a(I4
g230
tp1721
a(I5
g230
tp1722
a(I0
g230
tp1723
a(I1
g230
tp1724
a(I2
g230
tp1725
a(I3
g230
tp1726
a(I4
g230
tp1727
a(I5
g230
tp1728
a(I0
g230
tp1729
a(I1
g230
tp1730
a(I2
g230
tp1731
a(I3
g230
tp1732
a(I4
g230
tp1733
a(I5
g230
tp1734
a(I0
g230
tp1735
a(I1
g230
tp1736
a(I2
g230
tp1737
a(I3
g230
tp1738
a(I4
g230
tp1739
a(I5
g230
tp1740
a(I0
g230
tp1741
a(I1
g230
tp1742
a(I2
g230
tp1743
a(I3
g230
tp1744
a(I4
g230
tp1745
a(I5
g230
tp1746
a(I0
g230
tp1747
a(I1
g230
tp1748
a(I2
g230
tp1749
a(I3
g230
tp1750
a(I4
g230
tp1751
a(I5
g230
tp1752
a(I0
g230
tp1753
a(I1
g230
tp1754
a(I2
g230
tp1755
a(I3
g230
tp1756
a(I4
g230
tp1757
a(I5
g230
tp1758
a(I0
g230
tp1759
a(I1
g230
tp1760
a(I2
g230
tp1761
a(I3
g230
tp1762
a(I4
g230
tp1763
a(I5
g230
tp1764
a(I0
g230
tp1765
a(I1
g230
tp1766
a(I2
g230
tp1767
a(I3
g230
tp1768
a(I4
g230
tp1769
a(I5
g230
tp1770
a(I0
g230
tp1771
a(I1
g230
tp1772
a(I2
g230
tp1773
a(I3
g230
tp1774
a(I4
g230
tp1775
a(I5
g230
tp1776
a(I0
g230
tp1777
a(I1
g230
tp1778
a(I2
g230
tp1779
a(I3
g230
tp1780
a(I4
g230
tp1781
a(I5
g230
tp1782
a(I0
g230
tp1783
a(I1
g230
tp1784
a(I2
g230
tp1785
a(I3
g230
tp1786
a(I4
g230
tp1787
a(I5
g230
tp1788
a(I0
g230
tp1789
a(I1
g230
tp1790
a(I2
g230
tp1791
a(I3
g230
tp1792
a(I4
g230
tp1793
a(I5
g230
tp1794
a(I0
g230
tp1795
a(I1
g230
tp1796
a(I2
g230
tp1797
a(I3
g230
tp1798
a(I4
g230
tp1799
a(I5
g230
tp1800
a(I0
g230
tp1801
a(I1
g230
tp1802
a(I2
g230
tp1803
a(I3
g230
tp1804
a(I4
g230
tp1805
a(I5
g230
tp1806
a(I0
g230
tp1807
a(I1
g230
tp1808
a(I2
g230
tp1809
a(I3
g230
tp1810
a(I4
g230
tp1811
a(I5
g230
tp1812
a(I0
g230
tp1813
a(I1
g230
tp1814
a(I2
g230
tp1815
a(I3
g230
tp1816
a(I4
g230
tp1817
a(I5
g230
tp1818
a(I0
g230
tp1819
a(I1
g230
tp1820
a(I2
g230
tp1821
a(I3
g230
tp1822
a(I4
g230
tp1823
a(I5
g230
tp1824
a(I0
g230
tp1825
a(I1
g230
tp1826
a(I2
g230
tp1827
a(I3
g230
tp1828
a(I4
g230
tp1829
a(I5
g230
tp1830
a(I0
g230
tp1831
a(I1
g230
tp1832
a(I2
g230
tp1833
a(I3
g230
tp1834
a(I4
g230
tp1835
a(I5
g230
tp1836
a(I0
g230
tp1837
a(I1
g230
tp1838
a(I2
g230
tp1839
a(I3
g230
tp1840
a(I4
g230
tp1841
a(I5
g230
tp1842
a(I0
g230
tp1843
a(I1
g230
tp1844
a(I2
g230
tp1845
a(I3
g230
tp1846
a(I4
g230
tp1847
a(I5
g230
tp1848
a(I0
g230
tp1849
a(I1
g230
tp1850
a(I2
g230
tp1851
a(I3
g230
tp1852
a(I4
g230
tp1853
a(I5
g230
tp1854
a(I0
g230
tp1855
a(I1
g230
tp1856
a(I2
g230
tp1857
a(I3
g230
tp1858
a(I4
g230
tp1859
a(I5
g230
tp1860
a(I0
g230
tp1861
a(I1
g230
tp1862
a(I2
g230
tp1863
a(I3
g230
tp1864
a(I4
g230
tp1865
a(I5
g230
tp1866
a(I0
g230
tp1867
a(I1
g230
tp1868
a(I2
g230
tp1869
a(I3
g230
tp1870
a(I4
g230
tp1871
a(I5
g230
tp1872
a(I0
g230
tp1873
a(I1
g230
tp1874
a(I2
g230
tp1875
a(I3
g230
tp1876
a(I4
g230
tp1877
a(I5
g230
tp1878
a(I0
g230
tp1879
a(I1
g230
tp1880
a(I2
g230
tp1881
a(I3
g230
tp1882
a(I4
g230
tp1883
a(I5
g230
tp1884
a(I0
g230
tp1885
a(I1
g230
tp1886
a(I2
g230
tp1887
a(I3
g230
tp1888
a(I4
g230
tp1889
a(I5
g230
tp1890
a(I0
g230
tp1891
a(I1
g230
tp1892
a(I2
g230
tp1893
a(I3
g230
tp1894
a(I4
g230
tp1895
a(I5
g230
tp1896
a(I0
g230
tp1897
a(I1
g230
tp1898
a(I2
g230
tp1899
a(I3
g230
tp1900
a(I4
g230
tp1901
a(I5
g230
tp1902
a(I0
g230
tp1903
a(I1
g230
tp1904
a(I2
g230
tp1905
a(I3
g230
tp1906
a(I4
g230
tp1907
a(I5
g230
tp1908
a(I0
g230
tp1909
a(I1
g230
tp1910
a(I2
g230
tp1911
a(I3
g230
tp1912
a(I4
g230
tp1913
a(I5
g230
tp1914
a(I0
g230
tp1915
a(I1
g230
tp1916
a(I2
g230
tp1917
a(I3
g230
tp1918
a(I4
g230
tp1919
a(I5
g230
tp1920
a(I0
g230
tp1921
a(I1
g230
tp1922
a(I2
g230
tp1923
a(I3
g230
tp1924
a(I4
g230
tp1925
a(I5
g230
tp1926
a(I0
g230
tp1927
a(I1
g230
tp1928
a(I2
g230
tp1929
a(I3
g230
tp1930
a(I4
g230
tp1931
a(I5
g230
tp1932
a(I0
g230
tp1933
asS'length'
p1934
I1800
sS'agents'
p1935
(lp1936
(igame
Agent
p1937
(dp1938
S'index'
p1939
I0
sba(igame
Agent
p1940
(dp1941
g1939
I0
sba(igame
Agent
p1942
(dp1943
g1939
I0
sba(igame
Agent
p1944
(dp1945
g1939
I0
sba(igame
Agent
p1946
(dp1947
g1939
I0
sba(igame
Agent
p1948
(dp1949
g1939
I0
sbasS'redTeamName'
p1950
S'Teams/01_SBM'
p1951
s.